target datalayout = "e-m:e-p270:32:32-p271:32:32-p272:64:64-i64:64-i128:128-f80:128-n8:16:32:64-S128"
target triple = "x86_64-pc-linux-gnu"

%struct.AVFilterContext = type { ptr, ptr, ptr, ptr, ptr, i32, ptr, ptr, i32, ptr, ptr, i32, i32, ptr, ptr, ptr, ptr, i32, ptr, i32, i32 }
%struct.TileContext = type { ptr, i32, i32, i32, i32, i32, i32, i32, i32, %struct.FFDrawContext, %struct.FFDrawColor, ptr, ptr, [4 x i8] }
%struct.FFDrawContext = type { ptr, i32, i32, [4 x i32], [4 x i8], [4 x i8], i8, i8, i32, i32, i32, [3 x [3 x double]] }
%struct.FFDrawColor = type { [4 x i8], [4 x %union.anon.2] }
%union.anon.2 = type { [4 x i32] }

@.str.24 = private unnamed_addr constant [28 x i8] c"Tile size %ux%u is insane.\0A\00", align 1
@.str.25 = private unnamed_addr constant [69 x i8] c"Combination of Tile size %ux%u, padding %d and margin %d overflows.\0A\00", align 1
@.str.26 = private unnamed_addr constant [50 x i8] c"nb_frames must be less than or equal to %dx%d=%d\0A\00", align 1
@.str.27 = private unnamed_addr constant [30 x i8] c"overlap must be less than %d\0A\00", align 1
@.str.28 = private unnamed_addr constant [35 x i8] c"init_padding must be less than %d\0A\00", align 1

; Function Attrs: cold nounwind optsize uwtable
define internal i32 @init(ptr noundef %0) #0 {
  %2 = alloca i32, align 4
  %3 = alloca ptr, align 8
  %4 = alloca ptr, align 8
  %5 = alloca i32, align 4
  store ptr %0, ptr %3, align 8, !tbaa !4
  call void @llvm.lifetime.start.p0(i64 8, ptr %4) #7
  %6 = load ptr, ptr %3, align 8, !tbaa !4
  %7 = getelementptr inbounds nuw %struct.AVFilterContext, ptr %6, i32 0, i32 9
  %8 = load ptr, ptr %7, align 8, !tbaa !9
  store ptr %8, ptr %4, align 8, !tbaa !22
  %9 = load ptr, ptr %4, align 8, !tbaa !22
  %10 = getelementptr inbounds nuw %struct.TileContext, ptr %9, i32 0, i32 1
  %11 = load i32, ptr %10, align 8, !tbaa !24
  %12 = load ptr, ptr %4, align 8, !tbaa !22
  %13 = getelementptr inbounds nuw %struct.TileContext, ptr %12, i32 0, i32 2
  %14 = load i32, ptr %13, align 4, !tbaa !30
  %15 = udiv i32 -1, %14
  %16 = icmp ugt i32 %11, %15
  br i1 %16, label %17, label %25

17:                                               ; preds = %1
  %18 = load ptr, ptr %3, align 8, !tbaa !4
  %19 = load ptr, ptr %4, align 8, !tbaa !22
  %20 = getelementptr inbounds nuw %struct.TileContext, ptr %19, i32 0, i32 1
  %21 = load i32, ptr %20, align 8, !tbaa !24
  %22 = load ptr, ptr %4, align 8, !tbaa !22
  %23 = getelementptr inbounds nuw %struct.TileContext, ptr %22, i32 0, i32 2
  %24 = load i32, ptr %23, align 4, !tbaa !30
  call void (ptr, i32, ptr, ...) @av_log(ptr noundef %18, i32 noundef 16, ptr noundef @.str.24, i32 noundef %21, i32 noundef %24)
  store i32 -22, ptr %2, align 4
  store i32 1, ptr %5, align 4
  br label %157

25:                                               ; preds = %1
  %26 = load ptr, ptr %4, align 8, !tbaa !22
  %27 = getelementptr inbounds nuw %struct.TileContext, ptr %26, i32 0, i32 4
  %28 = load i32, ptr %27, align 4, !tbaa !31
  %29 = icmp ne i32 %28, 0
  br i1 %29, label %30, label %75

30:                                               ; preds = %25
  %31 = load ptr, ptr %4, align 8, !tbaa !22
  %32 = getelementptr inbounds nuw %struct.TileContext, ptr %31, i32 0, i32 1
  %33 = load i32, ptr %32, align 8, !tbaa !24
  %34 = sub i32 %33, 1
  %35 = load ptr, ptr %4, align 8, !tbaa !22
  %36 = getelementptr inbounds nuw %struct.TileContext, ptr %35, i32 0, i32 3
  %37 = load i32, ptr %36, align 8, !tbaa !32
  %38 = mul i32 2, %37
  %39 = sub i32 -1, %38
  %40 = load ptr, ptr %4, align 8, !tbaa !22
  %41 = getelementptr inbounds nuw %struct.TileContext, ptr %40, i32 0, i32 4
  %42 = load i32, ptr %41, align 4, !tbaa !31
  %43 = udiv i32 %39, %42
  %44 = icmp ugt i32 %34, %43
  br i1 %44, label %60, label %45

45:                                               ; preds = %30
  %46 = load ptr, ptr %4, align 8, !tbaa !22
  %47 = getelementptr inbounds nuw %struct.TileContext, ptr %46, i32 0, i32 2
  %48 = load i32, ptr %47, align 4, !tbaa !30
  %49 = sub i32 %48, 1
  %50 = load ptr, ptr %4, align 8, !tbaa !22
  %51 = getelementptr inbounds nuw %struct.TileContext, ptr %50, i32 0, i32 3
  %52 = load i32, ptr %51, align 8, !tbaa !32
  %53 = mul i32 2, %52
  %54 = sub i32 -1, %53
  %55 = load ptr, ptr %4, align 8, !tbaa !22
  %56 = getelementptr inbounds nuw %struct.TileContext, ptr %55, i32 0, i32 4
  %57 = load i32, ptr %56, align 4, !tbaa !31
  %58 = udiv i32 %54, %57
  %59 = icmp ugt i32 %49, %58
  br i1 %59, label %60, label %74

60:                                               ; preds = %45, %30
  %61 = load ptr, ptr %3, align 8, !tbaa !4
  %62 = load ptr, ptr %4, align 8, !tbaa !22
  %63 = getelementptr inbounds nuw %struct.TileContext, ptr %62, i32 0, i32 1
  %64 = load i32, ptr %63, align 8, !tbaa !24
  %65 = load ptr, ptr %4, align 8, !tbaa !22
  %66 = getelementptr inbounds nuw %struct.TileContext, ptr %65, i32 0, i32 2
  %67 = load i32, ptr %66, align 4, !tbaa !30
  %68 = load ptr, ptr %4, align 8, !tbaa !22
  %69 = getelementptr inbounds nuw %struct.TileContext, ptr %68, i32 0, i32 4
  %70 = load i32, ptr %69, align 4, !tbaa !31
  %71 = load ptr, ptr %4, align 8, !tbaa !22
  %72 = getelementptr inbounds nuw %struct.TileContext, ptr %71, i32 0, i32 3
  %73 = load i32, ptr %72, align 8, !tbaa !32
  call void (ptr, i32, ptr, ...) @av_log(ptr noundef %61, i32 noundef 16, ptr noundef @.str.25, i32 noundef %64, i32 noundef %67, i32 noundef %70, i32 noundef %73)
  store i32 -22, ptr %2, align 4
  store i32 1, ptr %5, align 4
  br label %157

74:                                               ; preds = %45
  br label %75

75:                                               ; preds = %74, %25
  %76 = load ptr, ptr %4, align 8, !tbaa !22
  %77 = getelementptr inbounds nuw %struct.TileContext, ptr %76, i32 0, i32 8
  %78 = load i32, ptr %77, align 4, !tbaa !33
  %79 = icmp eq i32 %78, 0
  br i1 %79, label %80, label %90

80:                                               ; preds = %75
  %81 = load ptr, ptr %4, align 8, !tbaa !22
  %82 = getelementptr inbounds nuw %struct.TileContext, ptr %81, i32 0, i32 1
  %83 = load i32, ptr %82, align 8, !tbaa !24
  %84 = load ptr, ptr %4, align 8, !tbaa !22
  %85 = getelementptr inbounds nuw %struct.TileContext, ptr %84, i32 0, i32 2
  %86 = load i32, ptr %85, align 4, !tbaa !30
  %87 = mul i32 %83, %86
  %88 = load ptr, ptr %4, align 8, !tbaa !22
  %89 = getelementptr inbounds nuw %struct.TileContext, ptr %88, i32 0, i32 8
  store i32 %87, ptr %89, align 4, !tbaa !33
  br label %118

90:                                               ; preds = %75
  %91 = load ptr, ptr %4, align 8, !tbaa !22
  %92 = getelementptr inbounds nuw %struct.TileContext, ptr %91, i32 0, i32 8
  %93 = load i32, ptr %92, align 4, !tbaa !33
  %94 = load ptr, ptr %4, align 8, !tbaa !22
  %95 = getelementptr inbounds nuw %struct.TileContext, ptr %94, i32 0, i32 1
  %96 = load i32, ptr %95, align 8, !tbaa !24
  %97 = load ptr, ptr %4, align 8, !tbaa !22
  %98 = getelementptr inbounds nuw %struct.TileContext, ptr %97, i32 0, i32 2
  %99 = load i32, ptr %98, align 4, !tbaa !30
  %100 = mul i32 %96, %99
  %101 = icmp ugt i32 %93, %100
  br i1 %101, label %102, label %117

102:                                              ; preds = %90
  %103 = load ptr, ptr %3, align 8, !tbaa !4
  %104 = load ptr, ptr %4, align 8, !tbaa !22
  %105 = getelementptr inbounds nuw %struct.TileContext, ptr %104, i32 0, i32 1
  %106 = load i32, ptr %105, align 8, !tbaa !24
  %107 = load ptr, ptr %4, align 8, !tbaa !22
  %108 = getelementptr inbounds nuw %struct.TileContext, ptr %107, i32 0, i32 2
  %109 = load i32, ptr %108, align 4, !tbaa !30
  %110 = load ptr, ptr %4, align 8, !tbaa !22
  %111 = getelementptr inbounds nuw %struct.TileContext, ptr %110, i32 0, i32 1
  %112 = load i32, ptr %111, align 8, !tbaa !24
  %113 = load ptr, ptr %4, align 8, !tbaa !22
  %114 = getelementptr inbounds nuw %struct.TileContext, ptr %113, i32 0, i32 2
  %115 = load i32, ptr %114, align 4, !tbaa !30
  %116 = mul i32 %112, %115
  call void (ptr, i32, ptr, ...) @av_log(ptr noundef %103, i32 noundef 16, ptr noundef @.str.26, i32 noundef %106, i32 noundef %109, i32 noundef %116)
  store i32 -22, ptr %2, align 4
  store i32 1, ptr %5, align 4
  br label %157

117:                                              ; preds = %90
  br label %118

118:                                              ; preds = %117, %80
  %119 = load ptr, ptr %4, align 8, !tbaa !22
  %120 = getelementptr inbounds nuw %struct.TileContext, ptr %119, i32 0, i32 5
  %121 = load i32, ptr %120, align 8, !tbaa !34
  %122 = load ptr, ptr %4, align 8, !tbaa !22
  %123 = getelementptr inbounds nuw %struct.TileContext, ptr %122, i32 0, i32 8
  %124 = load i32, ptr %123, align 4, !tbaa !33
  %125 = icmp uge i32 %121, %124
  br i1 %125, label %126, label %137

126:                                              ; preds = %118
  %127 = load ptr, ptr %3, align 8, !tbaa !4
  %128 = load ptr, ptr %4, align 8, !tbaa !22
  %129 = getelementptr inbounds nuw %struct.TileContext, ptr %128, i32 0, i32 8
  %130 = load i32, ptr %129, align 4, !tbaa !33
  call void (ptr, i32, ptr, ...) @av_log(ptr noundef %127, i32 noundef 24, ptr noundef @.str.27, i32 noundef %130)
  %131 = load ptr, ptr %4, align 8, !tbaa !22
  %132 = getelementptr inbounds nuw %struct.TileContext, ptr %131, i32 0, i32 8
  %133 = load i32, ptr %132, align 4, !tbaa !33
  %134 = sub i32 %133, 1
  %135 = load ptr, ptr %4, align 8, !tbaa !22
  %136 = getelementptr inbounds nuw %struct.TileContext, ptr %135, i32 0, i32 5
  store i32 %134, ptr %136, align 8, !tbaa !34
  br label %137

137:                                              ; preds = %126, %118
  %138 = load ptr, ptr %4, align 8, !tbaa !22
  %139 = getelementptr inbounds nuw %struct.TileContext, ptr %138, i32 0, i32 6
  %140 = load i32, ptr %139, align 4, !tbaa !35
  %141 = load ptr, ptr %4, align 8, !tbaa !22
  %142 = getelementptr inbounds nuw %struct.TileContext, ptr %141, i32 0, i32 8
  %143 = load i32, ptr %142, align 4, !tbaa !33
  %144 = icmp uge i32 %140, %143
  br i1 %144, label %145, label %150

145:                                              ; preds = %137
  %146 = load ptr, ptr %3, align 8, !tbaa !4
  %147 = load ptr, ptr %4, align 8, !tbaa !22
  %148 = getelementptr inbounds nuw %struct.TileContext, ptr %147, i32 0, i32 8
  %149 = load i32, ptr %148, align 4, !tbaa !33
  call void (ptr, i32, ptr, ...) @av_log(ptr noundef %146, i32 noundef 24, ptr noundef @.str.28, i32 noundef %149)
  br label %156

150:                                              ; preds = %137
  %151 = load ptr, ptr %4, align 8, !tbaa !22
  %152 = getelementptr inbounds nuw %struct.TileContext, ptr %151, i32 0, i32 6
  %153 = load i32, ptr %152, align 4, !tbaa !35
  %154 = load ptr, ptr %4, align 8, !tbaa !22
  %155 = getelementptr inbounds nuw %struct.TileContext, ptr %154, i32 0, i32 7
  store i32 %153, ptr %155, align 8, !tbaa !36
  br label %156

156:                                              ; preds = %150, %145
  store i32 0, ptr %2, align 4
  store i32 1, ptr %5, align 4
  br label %157

157:                                              ; preds = %156, %102, %60, %17
  call void @llvm.lifetime.end.p0(i64 8, ptr %4) #7
  %158 = load i32, ptr %2, align 4
  ret i32 %158
}