; Function Attrs: cold nounwind optsize uwtable
define internal range(i32 -22, 1) i32 @init(ptr noundef %0) #0 {
  %2 = getelementptr inbounds nuw i8, ptr %0, i64 72
  %3 = load ptr, ptr %2, align 8, !tbaa !4
  %4 = getelementptr inbounds nuw i8, ptr %3, i64 8
  %5 = load i32, ptr %4, align 8, !tbaa !20
  %6 = getelementptr inbounds nuw i8, ptr %3, i64 12
  %7 = load i32, ptr %6, align 4, !tbaa !26
  %mul = tail call { i32, i1 } @llvm.umul.with.overflow.i32(i32 %7, i32 %5)
  %mul.ov = extractvalue { i32, i1 } %mul, 1
  br i1 %mul.ov, label %8, label %9

8:                                                ; preds = %1
  tail call void (ptr, i32, ptr, ...) @av_log(ptr noundef nonnull %0, i32 noundef 16, ptr noundef nonnull @.str.24, i32 noundef %5, i32 noundef %7) #5
  br label %46

9:                                                ; preds = %1
  %10 = getelementptr inbounds nuw i8, ptr %3, i64 20
  %11 = load i32, ptr %10, align 4, !tbaa !27
  %.not = icmp eq i32 %11, 0
  br i1 %.not, label %23, label %12

12:                                               ; preds = %9
  %13 = add i32 %5, -1
  %14 = getelementptr inbounds nuw i8, ptr %3, i64 16
  %15 = load i32, ptr %14, align 8, !tbaa !28
  %16 = shl i32 %15, 1
  %17 = xor i32 %16, -1
  %18 = udiv i32 %17, %11
  %19 = icmp ugt i32 %13, %18
  %20 = add i32 %7, -1
  %21 = icmp ugt i32 %20, %18
  %or.cond = select i1 %19, i1 true, i1 %21
  br i1 %or.cond, label %22, label %23

22:                                               ; preds = %12
  tail call void (ptr, i32, ptr, ...) @av_log(ptr noundef nonnull %0, i32 noundef 16, ptr noundef nonnull @.str.25, i32 noundef %5, i32 noundef %7, i32 noundef %11, i32 noundef %15) #5
  br label %46

23:                                               ; preds = %12, %9
  %24 = getelementptr inbounds nuw i8, ptr %3, i64 36
  %25 = load i32, ptr %24, align 4, !tbaa !29
  %26 = icmp eq i32 %25, 0
  %27 = mul i32 %7, %5
  br i1 %26, label %28, label %29

28:                                               ; preds = %23
  store i32 %27, ptr %24, align 4, !tbaa !29
  br label %32

29:                                               ; preds = %23
  %30 = icmp ugt i32 %25, %27
  br i1 %30, label %31, label %32

31:                                               ; preds = %29
  tail call void (ptr, i32, ptr, ...) @av_log(ptr noundef nonnull %0, i32 noundef 16, ptr noundef nonnull @.str.26, i32 noundef %5, i32 noundef %7, i32 noundef %27) #5
  br label %46

32:                                               ; preds = %29, %28
  %33 = phi i32 [ %25, %29 ], [ %27, %28 ]
  %34 = getelementptr inbounds nuw i8, ptr %3, i64 24
  %35 = load i32, ptr %34, align 8, !tbaa !30
  %.not50 = icmp ult i32 %35, %33
  br i1 %.not50, label %39, label %36

36:                                               ; preds = %32
  tail call void (ptr, i32, ptr, ...) @av_log(ptr noundef nonnull %0, i32 noundef 24, ptr noundef nonnull @.str.27, i32 noundef %33) #5
  %37 = load i32, ptr %24, align 4, !tbaa !29
  %38 = add i32 %37, -1
  store i32 %38, ptr %34, align 8, !tbaa !30
  br label %39

39:                                               ; preds = %36, %32
  %40 = phi i32 [ %37, %36 ], [ %33, %32 ]
  %41 = getelementptr inbounds nuw i8, ptr %3, i64 28
  %42 = load i32, ptr %41, align 4, !tbaa !31
  %.not51 = icmp ult i32 %42, %40
  br i1 %.not51, label %44, label %43

43:                                               ; preds = %39
  tail call void (ptr, i32, ptr, ...) @av_log(ptr noundef nonnull %0, i32 noundef 24, ptr noundef nonnull @.str.28, i32 noundef %40) #5
  br label %46

44:                                               ; preds = %39
  %45 = getelementptr inbounds nuw i8, ptr %3, i64 32
  store i32 %42, ptr %45, align 8, !tbaa !32
  br label %46

46:                                               ; preds = %43, %44, %31, %22, %8
  %.0 = phi i32 [ -22, %8 ], [ -22, %22 ], [ -22, %31 ], [ 0, %44 ], [ 0, %43 ]
  ret i32 %.0
}